ccopy_reg
_reconstructor
p0
(csklearn.feature_extraction.text
CountVectorizer
p1
c__builtin__
object
p2
Ntp3
Rp4
(dp5
S'decode_error'
p6
S'ignore'
p7
sS'lowercase'
p8
I01
sS'stop_words'
p9
S'english'
p10
sS'tokenizer'
p11
NsS'vocabulary'
p12
NsS'encoding'
p13
Vutf-8
p14
sS'token_pattern'
p15
V(?u)\u005cb\u005cw\u005cw+\u005cb
p16
sS'_sklearn_version'
p17
S'0.19.0'
p18
sS'analyzer'
p19
Vword
p20
sS'vocabulary_'
p21
(dp22
Vsector
p23
cnumpy.core.multiarray
scalar
p24
(cnumpy
dtype
p25
(S'i4'
p26
I0
I1
tp27
Rp28
(I3
S'<'
p29
NNNI-1
I-1
I0
tp30
bS'\xcc\x00\x00\x00'
p31
tp32
Rp33
sVreductions
p34
g24
(g28
S'\xb7\x00\x00\x00'
p35
tp36
Rp37
sVglobal
p38
g24
(g28
S'[\x00\x00\x00'
p39
tp40
Rp41
sVbring
p42
g24
(g28
S'\x1b\x00\x00\x00'
p43
tp44
Rp45
sVbusinesses
p46
g24
(g28
S' \x00\x00\x00'
p47
tp48
Rp49
sVrot
p50
g24
(g28
S'\xc2\x00\x00\x00'
p51
tp52
Rp53
sVchildren
p54
g24
(g28
S'&\x00\x00\x00'
p55
tp56
Rp57
sVcauses
p58
g24
(g28
S'#\x00\x00\x00'
p59
tp60
Rp61
sVnorthern
p62
g24
(g28
S'\x9d\x00\x00\x00'
p63
tp64
Rp65
sVyoung
p66
g24
(g28
S'\x04\x01\x00\x00'
p67
tp68
Rp69
sVcrime
p70
g24
(g28
S'8\x00\x00\x00'
p71
tp72
Rp73
sVcritical
p74
g24
(g28
S'9\x00\x00\x00'
p75
tp76
Rp77
sVblack
p78
g24
(g28
S'\x17\x00\x00\x00'
p79
tp80
Rp81
sVteaching
p82
g24
(g28
S'\xe9\x00\x00\x00'
p83
tp84
Rp85
sVadequate
p86
g24
(g28
S'\n\x00\x00\x00'
p87
tp88
Rp89
sVreveal
p90
g24
(g28
S'\xc0\x00\x00\x00'
p91
tp92
Rp93
sVschool
p94
g24
(g28
S'\xca\x00\x00\x00'
p95
tp96
Rp97
sVcountries
p98
g24
(g28
S'3\x00\x00\x00'
p99
tp100
Rp101
sVdid
p102
g24
(g28
S'?\x00\x00\x00'
p103
tp104
Rp105
sVexpansions
p106
g24
(g28
S'P\x00\x00\x00'
p107
tp108
Rp109
sVlevee
p110
g24
(g28
S'|\x00\x00\x00'
p111
tp112
Rp113
sVleader
p114
g24
(g28
S'z\x00\x00\x00'
p115
tp116
Rp117
sVsand
p118
g24
(g28
S'\xc7\x00\x00\x00'
p119
tp120
Rp121
sVactivity
p122
g24
(g28
S'\t\x00\x00\x00'
p123
tp124
Rp125
sVnational
p126
g24
(g28
S'\x94\x00\x00\x00'
p127
tp128
Rp129
sVturbulent
p130
g24
(g28
S'\xed\x00\x00\x00'
p131
tp132
Rp133
sVbudget
p134
g24
(g28
S'\x1d\x00\x00\x00'
p135
tp136
Rp137
sVcost
p138
g24
(g28
S'2\x00\x00\x00'
p139
tp140
Rp141
sVjobs
p142
g24
(g28
S't\x00\x00\x00'
p143
tp144
Rp145
sVbrazil
p146
g24
(g28
S'\x1a\x00\x00\x00'
p147
tp148
Rp149
sVsaid
p150
g24
(g28
S'\xc6\x00\x00\x00'
p151
tp152
Rp153
sVstately
p154
g24
(g28
S'\xdd\x00\x00\x00'
p155
tp156
Rp157
sVcurrently
p158
g24
(g28
S':\x00\x00\x00'
p159
tp160
Rp161
sVunions
p162
g24
(g28
S'\xf5\x00\x00\x00'
p163
tp164
Rp165
sVnew
p166
g24
(g28
S'\x97\x00\x00\x00'
p167
tp168
Rp169
sVapproach
p170
g24
(g28
S'\x12\x00\x00\x00'
p171
tp172
Rp173
sVbudgets
p174
g24
(g28
S'\x1e\x00\x00\x00'
p175
tp176
Rp177
sVstagnation
p178
g24
(g28
S'\xda\x00\x00\x00'
p179
tp180
Rp181
sVterms
p182
g24
(g28
S'\xeb\x00\x00\x00'
p183
tp184
Rp185
sVcreating
p186
g24
(g28
S'7\x00\x00\x00'
p187
tp188
Rp189
sVimportance
p190
g24
(g28
S'j\x00\x00\x00'
p191
tp192
Rp193
sVsold
p194
g24
(g28
S'\xd3\x00\x00\x00'
p195
tp196
Rp197
sVattention
p198
g24
(g28
S'\x13\x00\x00\x00'
p199
tp200
Rp201
sVunderstanding
p202
g24
(g28
S'\xf3\x00\x00\x00'
p203
tp204
Rp205
sVchina
p206
g24
(g28
S"'\x00\x00\x00"
p207
tp208
Rp209
sVsink
p210
g24
(g28
S'\xd0\x00\x00\x00'
p211
tp212
Rp213
sVactive
p214
g24
(g28
S'\x08\x00\x00\x00'
p215
tp216
Rp217
sVpolice
p218
g24
(g28
S'\xad\x00\x00\x00'
p219
tp220
Rp221
sV100
p222
g24
(g28
S'\x01\x00\x00\x00'
p223
tp224
Rp225
sVinspectorate
p226
g24
(g28
S'q\x00\x00\x00'
p227
tp228
Rp229
sVfaced
p230
g24
(g28
S'R\x00\x00\x00'
p231
tp232
Rp233
sVmulligan
p234
g24
(g28
S'\x91\x00\x00\x00'
p235
tp236
Rp237
sVannual
p238
g24
(g28
S'\x10\x00\x00\x00'
p239
tp240
Rp241
sVleaving
p242
g24
(g28
S'{\x00\x00\x00'
p243
tp244
Rp245
sVsuggests
p246
g24
(g28
S'\xe4\x00\x00\x00'
p247
tp248
Rp249
sVaction
p250
g24
(g28
S'\x07\x00\x00\x00'
p251
tp252
Rp253
sVstudies
p254
g24
(g28
S'\xe0\x00\x00\x00'
p255
tp256
Rp257
sVgrounds
p258
g24
(g28
S'^\x00\x00\x00'
p259
tp260
Rp261
sVjulia
p262
g24
(g28
S'u\x00\x00\x00'
p263
tp264
Rp265
sVbrought
p266
g24
(g28
S'\x1c\x00\x00\x00'
p267
tp268
Rp269
sVnewby
p270
g24
(g28
S'\x98\x00\x00\x00'
p271
tp272
Rp273
sVtable
p274
g24
(g28
S'\xe7\x00\x00\x00'
p275
tp276
Rp277
sV256
p278
g24
(g28
S'\x05\x00\x00\x00'
p279
tp280
Rp281
sVexpensive
p282
g24
(g28
S'Q\x00\x00\x00'
p283
tp284
Rp285
sV255
p286
g24
(g28
S'\x04\x00\x00\x00'
p287
tp288
Rp289
sVconference
p290
g24
(g28
S'/\x00\x00\x00'
p291
tp292
Rp293
sVuse
p294
g24
(g28
S'\xf7\x00\x00\x00'
p295
tp296
Rp297
sVspoke
p298
g24
(g28
S'\xd8\x00\x00\x00'
p299
tp300
Rp301
sVunion
p302
g24
(g28
S'\xf4\x00\x00\x00'
p303
tp304
Rp305
sVpositive
p306
g24
(g28
S'\xb0\x00\x00\x00'
p307
tp308
Rp309
sVpolitical
p310
g24
(g28
S'\xae\x00\x00\x00'
p311
tp312
Rp313
sVnorthallerton
p314
g24
(g28
S'\x9c\x00\x00\x00'
p315
tp316
Rp317
sVireland
p318
g24
(g28
S's\x00\x00\x00'
p319
tp320
Rp321
sVstrike
p322
g24
(g28
S'\xdf\x00\x00\x00'
p323
tp324
Rp325
sVtype
p326
g24
(g28
S'\xf0\x00\x00\x00'
p327
tp328
Rp329
sVsort
p330
g24
(g28
S'\xd4\x00\x00\x00'
p331
tp332
Rp333
sVcommissioner
p334
g24
(g28
S',\x00\x00\x00'
p335
tp336
Rp337
sVengaged
p338
g24
(g28
S'M\x00\x00\x00'
p339
tp340
Rp341
sVpinching
p342
g24
(g28
S'\xa8\x00\x00\x00'
p343
tp344
Rp345
sVparticular
p346
g24
(g28
S'\xa3\x00\x00\x00'
p347
tp348
Rp349
sVhole
p350
g24
(g28
S'd\x00\x00\x00'
p351
tp352
Rp353
sVsuffered
p354
g24
(g28
S'\xe3\x00\x00\x00'
p355
tp356
Rp357
sV00s
p358
g24
(g28
S'\x00\x00\x00\x00'
p359
tp360
Rp361
sVwork
p362
g24
(g28
S'\x00\x01\x00\x00'
p363
tp364
Rp365
sVappearance
p366
g24
(g28
S'\x11\x00\x00\x00'
p367
tp368
Rp369
sVeconomies
p370
g24
(g28
S'F\x00\x00\x00'
p371
tp372
Rp373
sVvalue
p374
g24
(g28
S'\xfa\x00\x00\x00'
p375
tp376
Rp377
sVreplaced
p378
g24
(g28
S'\xbe\x00\x00\x00'
p379
tp380
Rp381
sVteachers
p382
g24
(g28
S'\xe8\x00\x00\x00'
p383
tp384
Rp385
sVms
p386
g24
(g28
S'\x90\x00\x00\x00'
p387
tp388
Rp389
sVgrowing
p390
g24
(g28
S'_\x00\x00\x00'
p391
tp392
Rp393
sVmaking
p394
g24
(g28
S'\x84\x00\x00\x00'
p395
tp396
Rp397
sVbeautiful
p398
g24
(g28
S'\x15\x00\x00\x00'
p399
tp400
Rp401
sVclassrooms
p402
g24
(g28
S')\x00\x00\x00'
p403
tp404
Rp405
sVsoil
p406
g24
(g28
S'\xd2\x00\x00\x00'
p407
tp408
Rp409
sVindia
p410
g24
(g28
S'm\x00\x00\x00'
p411
tp412
Rp413
sVsurface
p414
g24
(g28
S'\xe5\x00\x00\x00'
p415
tp416
Rp417
sVii
p418
g24
(g28
S'i\x00\x00\x00'
p419
tp420
Rp421
sVeducational
p422
g24
(g28
S'I\x00\x00\x00'
p423
tp424
Rp425
sVclaimed
p426
g24
(g28
S'(\x00\x00\x00'
p427
tp428
Rp429
sVinformation
p430
g24
(g28
S'o\x00\x00\x00'
p431
tp432
Rp433
sVconfirmed
p434
g24
(g28
S'0\x00\x00\x00'
p435
tp436
Rp437
sVend
p438
g24
(g28
S'L\x00\x00\x00'
p439
tp440
Rp441
sVturn
p442
g24
(g28
S'\xee\x00\x00\x00'
p443
tp444
Rp445
sVnasuwt
p446
g24
(g28
S'\x93\x00\x00\x00'
p447
tp448
Rp449
sVpay
p450
g24
(g28
S'\xa4\x00\x00\x00'
p451
tp452
Rp453
sVmake
p454
g24
(g28
S'\x83\x00\x00\x00'
p455
tp456
Rp457
sVparlour
p458
g24
(g28
S'\xa2\x00\x00\x00'
p459
tp460
Rp461
sVspeech
p462
g24
(g28
S'\xd7\x00\x00\x00'
p463
tp464
Rp465
sVlargest
p466
g24
(g28
S'x\x00\x00\x00'
p467
tp468
Rp469
sVday
p470
g24
(g28
S'=\x00\x00\x00'
p471
tp472
Rp473
sVeconomy
p474
g24
(g28
S'G\x00\x00\x00'
p475
tp476
Rp477
sVused
p478
g24
(g28
S'\xf8\x00\x00\x00'
p479
tp480
Rp481
sVplans
p482
g24
(g28
S'\xac\x00\x00\x00'
p483
tp484
Rp485
sVearlier
p486
g24
(g28
S'C\x00\x00\x00'
p487
tp488
Rp489
sVdifferent
p490
g24
(g28
S'@\x00\x00\x00'
p491
tp492
Rp493
sVholidays
p494
g24
(g28
S'e\x00\x00\x00'
p495
tp496
Rp497
sVusually
p498
g24
(g28
S'\xf9\x00\x00\x00'
p499
tp500
Rp501
sVadventure
p502
g24
(g28
S'\x0c\x00\x00\x00'
p503
tp504
Rp505
sVimproving
p506
g24
(g28
S'k\x00\x00\x00'
p507
tp508
Rp509
sVpresident
p510
g24
(g28
S'\xb2\x00\x00\x00'
p511
tp512
Rp513
sVrecent
p514
g24
(g28
S'\xb6\x00\x00\x00'
p515
tp516
Rp517
sVsusan
p518
g24
(g28
S'\xe6\x00\x00\x00'
p519
tp520
Rp521
sVcommunities
p522
g24
(g28
S'.\x00\x00\x00'
p523
tp524
Rp525
sVheadquarters
p526
g24
(g28
S'a\x00\x00\x00'
p527
tp528
Rp529
sVsavings
p530
g24
(g28
S'\xc9\x00\x00\x00'
p531
tp532
Rp533
sVmedia
p534
g24
(g28
S'\x88\x00\x00\x00'
p535
tp536
Rp537
sVwiske
p538
g24
(g28
S'\xff\x00\x00\x00'
p539
tp540
Rp541
sVoutdoor
p542
g24
(g28
S'\xa0\x00\x00\x00'
p543
tp544
Rp545
sVhelp
p546
g24
(g28
S'c\x00\x00\x00'
p547
tp548
Rp549
sVheavily
p550
g24
(g28
S'b\x00\x00\x00'
p551
tp552
Rp553
sVmoney
p554
g24
(g28
S'\x8e\x00\x00\x00'
p555
tp556
Rp557
sVyears
p558
g24
(g28
S'\x02\x01\x00\x00'
p559
tp560
Rp561
sVcourse
p562
g24
(g28
S'4\x00\x00\x00'
p563
tp564
Rp565
sVincluding
p566
g24
(g28
S'l\x00\x00\x00'
p567
tp568
Rp569
sVcuts
p570
g24
(g28
S';\x00\x00\x00'
p571
tp572
Rp573
sVbelfast
p574
g24
(g28
S'\x16\x00\x00\x00'
p575
tp576
Rp577
sVfit
p578
g24
(g28
S'U\x00\x00\x00'
p579
tp580
Rp581
sVinformal
p582
g24
(g28
S'n\x00\x00\x00'
p583
tp584
Rp585
sVyorkshire
p586
g24
(g28
S'\x03\x01\x00\x00'
p587
tp588
Rp589
sVlate
p590
g24
(g28
S'y\x00\x00\x00'
p591
tp592
Rp593
sVspread
p594
g24
(g28
S'\xd9\x00\x00\x00'
p595
tp596
Rp597
sVlocation
p598
g24
(g28
S'\x81\x00\x00\x00'
p599
tp600
Rp601
sVsave
p602
g24
(g28
S'\xc8\x00\x00\x00'
p603
tp604
Rp605
sVdam
p606
g24
(g28
S'<\x00\x00\x00'
p607
tp608
Rp609
sVknow
p610
g24
(g28
S'w\x00\x00\x00'
p611
tp612
Rp613
sVschools
p614
g24
(g28
S'\xcb\x00\x00\x00'
p615
tp616
Rp617
sVhall
p618
g24
(g28
S'`\x00\x00\x00'
p619
tp620
Rp621
sVterm
p622
g24
(g28
S'\xea\x00\x00\x00'
p623
tp624
Rp625
sVworkload
p626
g24
(g28
S'\x01\x01\x00\x00'
p627
tp628
Rp629
sVlike
p630
g24
(g28
S'}\x00\x00\x00'
p631
tp632
Rp633
sVwarned
p634
g24
(g28
S'\xfb\x00\x00\x00'
p635
tp636
Rp637
sVspecific
p638
g24
(g28
S'\xd6\x00\x00\x00'
p639
tp640
Rp641
sVcourses
p642
g24
(g28
S'5\x00\x00\x00'
p643
tp644
Rp645
sVpiping
p646
g24
(g28
S'\xaa\x00\x00\x00'
p647
tp648
Rp649
sVofficer
p650
g24
(g28
S'\x9f\x00\x00\x00'
p651
tp652
Rp653
sVdominating
p654
g24
(g28
S'B\x00\x00\x00'
p655
tp656
Rp657
sVsubset
p658
g24
(g28
S'\xe1\x00\x00\x00'
p659
tp660
Rp661
sVpeople
p662
g24
(g28
S'\xa6\x00\x00\x00'
p663
tp664
Rp665
sVsubsoil
p666
g24
(g28
S'\xe2\x00\x00\x00'
p667
tp668
Rp669
sVidea
p670
g24
(g28
S'h\x00\x00\x00'
p671
tp672
Rp673
sVsociety
p674
g24
(g28
S'\xd1\x00\x00\x00'
p675
tp676
Rp677
sVbooks
p678
g24
(g28
S'\x19\x00\x00\x00'
p679
tp680
Rp681
sVhome
p682
g24
(g28
S'f\x00\x00\x00'
p683
tp684
Rp685
sVinspections
p686
g24
(g28
S'p\x00\x00\x00'
p687
tp688
Rp689
sVspecial
p690
g24
(g28
S'\xd5\x00\x00\x00'
p691
tp692
Rp693
sVliving
p694
g24
(g28
S'\x80\x00\x00\x00'
p695
tp696
Rp697
sVultimately
p698
g24
(g28
S'\xf2\x00\x00\x00'
p699
tp700
Rp701
sVgradient
p702
g24
(g28
S']\x00\x00\x00'
p703
tp704
Rp705
sVelectronic
p706
g24
(g28
S'K\x00\x00\x00'
p707
tp708
Rp709
sVavoid
p710
g24
(g28
S'\x14\x00\x00\x00'
p711
tp712
Rp713
sVcomments
p714
g24
(g28
S'+\x00\x00\x00'
p715
tp716
Rp717
sVefficiencies
p718
g24
(g28
S'J\x00\x00\x00'
p719
tp720
Rp721
sVmarket
p722
g24
(g28
S'\x85\x00\x00\x00'
p723
tp724
Rp725
sVinternet
p726
g24
(g28
S'r\x00\x00\x00'
p727
tp728
Rp729
sVoccurs
p730
g24
(g28
S'\x9e\x00\x00\x00'
p731
tp732
Rp733
sVannounced
p734
g24
(g28
S'\x0f\x00\x00\x00'
p735
tp736
Rp737
sVrefer
p738
g24
(g28
S'\xb9\x00\x00\x00'
p739
tp740
Rp741
sVrun
p742
g24
(g28
S'\xc3\x00\x00\x00'
p743
tp744
Rp745
sVagreement
p746
g24
(g28
S'\x0e\x00\x00\x00'
p747
tp748
Rp749
sVformation
p750
g24
(g28
S'X\x00\x00\x00'
p751
tp752
Rp753
sVredundancies
p754
g24
(g28
S'\xb8\x00\x00\x00'
p755
tp756
Rp757
sVmembers
p758
g24
(g28
S'\x8a\x00\x00\x00'
p759
tp760
Rp761
sVrefers
p762
g24
(g28
S'\xba\x00\x00\x00'
p763
tp764
Rp765
sVtraining
p766
g24
(g28
S'\xec\x00\x00\x00'
p767
tp768
Rp769
sVcentral
p770
g24
(g28
S'$\x00\x00\x00'
p771
tp772
Rp773
sVjustin
p774
g24
(g28
S'v\x00\x00\x00'
p775
tp776
Rp777
sVcreated
p778
g24
(g28
S'6\x00\x00\x00'
p779
tp780
Rp781
sVmodernise
p782
g24
(g28
S'\x8d\x00\x00\x00'
p783
tp784
Rp785
sVmccamphill
p786
g24
(g28
S'\x87\x00\x00\x00'
p787
tp788
Rp789
sVcarries
p790
g24
(g28
S'"\x00\x00\x00'
p791
tp792
Rp793
sVplace
p794
g24
(g28
S'\xab\x00\x00\x00'
p795
tp796
Rp797
sVconnected
p798
g24
(g28
S'1\x00\x00\x00'
p799
tp800
Rp801
sVpurpose
p802
g24
(g28
S'\xb5\x00\x00\x00'
p803
tp804
Rp805
sVdischarging
p806
g24
(g28
S'A\x00\x00\x00'
p807
tp808
Rp809
sVunsustainable
p810
g24
(g28
S'\xf6\x00\x00\x00'
p811
tp812
Rp813
sVgrade
p814
g24
(g28
S'\\\x00\x00\x00'
p815
tp816
Rp817
sVcommunication
p818
g24
(g28
S'-\x00\x00\x00'
p819
tp820
Rp821
sVpgl
p822
g24
(g28
S'\xa7\x00\x00\x00'
p823
tp824
Rp825
sVrolling
p826
g24
(g28
S'\xc1\x00\x00\x00'
p827
tp828
Rp829
sVpromise
p830
g24
(g28
S'\xb3\x00\x00\x00'
p831
tp832
Rp833
sVmiss
p834
g24
(g28
S'\x8b\x00\x00\x00'
p835
tp836
Rp837
sVecommerce
p838
g24
(g28
S'D\x00\x00\x00'
p839
tp840
Rp841
sVgiven
p842
g24
(g28
S'Z\x00\x00\x00'
p843
tp844
Rp845
sVservice
p846
g24
(g28
S'\xce\x00\x00\x00'
p847
tp848
Rp849
sVstart
p850
g24
(g28
S'\xdb\x00\x00\x00'
p851
tp852
Rp853
sVfight
p854
g24
(g28
S'T\x00\x00\x00'
p855
tp856
Rp857
sVneeded
p858
g24
(g28
S'\x95\x00\x00\x00'
p859
tp860
Rp861
sVlisted
p862
g24
(g28
S'\x7f\x00\x00\x00'
p863
tp864
Rp865
sVway
p866
g24
(g28
S'\xfd\x00\x00\x00'
p867
tp868
Rp869
sVboil
p870
g24
(g28
S'\x18\x00\x00\x00'
p871
tp872
Rp873
sVmedium
p874
g24
(g28
S'\x89\x00\x00\x00'
p875
tp876
Rp877
sVnorth
p878
g24
(g28
S'\x9b\x00\x00\x00'
p879
tp880
Rp881
sVform
p882
g24
(g28
S'W\x00\x00\x00'
p883
tp884
Rp885
sVhq
p886
g24
(g28
S'g\x00\x00\x00'
p887
tp888
Rp889
sVremoves
p890
g24
(g28
S'\xbd\x00\x00\x00'
p891
tp892
Rp893
sVfailure
p894
g24
(g28
S'S\x00\x00\x00'
p895
tp896
Rp897
sVwestern
p898
g24
(g28
S'\xfe\x00\x00\x00'
p899
tp900
Rp901
sVnewer
p902
g24
(g28
S'\x99\x00\x00\x00'
p903
tp904
Rp905
sVline
p906
g24
(g28
S'~\x00\x00\x00'
p907
tp908
Rp909
sVespecially
p910
g24
(g28
S'O\x00\x00\x00'
p911
tp912
Rp913
sVmyopia
p914
g24
(g28
S'\x92\x00\x00\x00'
p915
tp916
Rp917
sVsadness
p918
g24
(g28
S'\xc5\x00\x00\x00'
p919
tp920
Rp921
sVeconomic
p922
g24
(g28
S'E\x00\x00\x00'
p923
tp924
Rp925
sVstories
p926
g24
(g28
S'\xde\x00\x00\x00'
p927
tp928
Rp929
sVproviding
p930
g24
(g28
S'\xb4\x00\x00\x00'
p931
tp932
Rp933
sVcalled
p934
g24
(g28
S'!\x00\x00\x00'
p935
tp936
Rp937
sVseep
p938
g24
(g28
S'\xcd\x00\x00\x00'
p939
tp940
Rp941
sVpenny
p942
g24
(g28
S'\xa5\x00\x00\x00'
p943
tp944
Rp945
sVturned
p946
g24
(g28
S'\xef\x00\x00\x00'
p947
tp948
Rp949
sVneeds
p950
g24
(g28
S'\x96\x00\x00\x00'
p951
tp952
Rp953
sVwarning
p954
g24
(g28
S'\xfc\x00\x00\x00'
p955
tp956
Rp957
sVeducation
p958
g24
(g28
S'H\x00\x00\x00'
p959
tp960
Rp961
sVclearly
p962
g24
(g28
S'*\x00\x00\x00'
p963
tp964
Rp965
sVrelatively
p966
g24
(g28
S'\xbb\x00\x00\x00'
p967
tp968
Rp969
sVni
p970
g24
(g28
S'\x9a\x00\x00\x00'
p971
tp972
Rp973
sVdevolution
p974
g24
(g28
S'>\x00\x00\x00'
p975
tp976
Rp977
sV40
p978
g24
(g28
S'\x06\x00\x00\x00'
p979
tp980
Rp981
sVpoliticians
p982
g24
(g28
S'\xaf\x00\x00\x00'
p983
tp984
Rp985
sVerosion
p986
g24
(g28
S'N\x00\x00\x00'
p987
tp988
Rp989
sVpain
p990
g24
(g28
S'\xa1\x00\x00\x00'
p991
tp992
Rp993
sVadvances
p994
g24
(g28
S'\x0b\x00\x00\x00'
p995
tp996
Rp997
sVcentre
p998
g24
(g28
S'%\x00\x00\x00'
p999
tp1000
Rp1001
sVmodels
p1002
g24
(g28
S'\x8c\x00\x00\x00'
p1003
tp1004
Rp1005
sVprepared
p1006
g24
(g28
S'\xb1\x00\x00\x00'
p1007
tp1008
Rp1009
sVmouth
p1010
g24
(g28
S'\x8f\x00\x00\x00'
p1011
tp1012
Rp1013
sVfresh
p1014
g24
(g28
S'Y\x00\x00\x00'
p1015
tp1016
Rp1017
sVservices
p1018
g24
(g28
S'\xcf\x00\x00\x00'
p1019
tp1020
Rp1021
sVbuilding
p1022
g24
(g28
S'\x1f\x00\x00\x00'
p1023
tp1024
Rp1025
sVremote
p1026
g24
(g28
S'\xbc\x00\x00\x00'
p1027
tp1028
Rp1029
sVlonger
p1030
g24
(g28
S'\x82\x00\x00\x00'
p1031
tp1032
Rp1033
sVtypically
p1034
g24
(g28
S'\xf1\x00\x00\x00'
p1035
tp1036
Rp1037
sVage
p1038
g24
(g28
S'\r\x00\x00\x00'
p1039
tp1040
Rp1041
sVflow
p1042
g24
(g28
S'V\x00\x00\x00'
p1043
tp1044
Rp1045
sVpipe
p1046
g24
(g28
S'\xa9\x00\x00\x00'
p1047
tp1048
Rp1049
sV2000
p1050
g24
(g28
S'\x02\x00\x00\x00'
p1051
tp1052
Rp1053
sV2001
p1054
g24
(g28
S'\x03\x00\x00\x00'
p1055
tp1056
Rp1057
sVmass
p1058
g24
(g28
S'\x86\x00\x00\x00'
p1059
tp1060
Rp1061
sVrural
p1062
g24
(g28
S'\xc4\x00\x00\x00'
p1063
tp1064
Rp1065
sVstarting
p1066
g24
(g28
S'\xdc\x00\x00\x00'
p1067
tp1068
Rp1069
sVrestored
p1070
g24
(g28
S'\xbf\x00\x00\x00'
p1071
tp1072
Rp1073
ssS'binary'
p1074
I00
sS'ngram_range'
p1075
(I1
I1
tp1076
sS'preprocessor'
p1077
NsS'max_df'
p1078
F1.0
sS'min_df'
p1079
I1
sS'max_features'
p1080
NsS'fixed_vocabulary_'
p1081
I00
sS'strip_accents'
p1082
NsS'dtype'
p1083
cnumpy
int64
p1084
sS'stop_words_'
p1085
c__builtin__
set
p1086
((lp1087
tp1088
Rp1089
sS'input'
p1090
Vcontent
p1091
sb.